target datalayout = "e-m:e-p270:32:32-p271:32:32-p272:64:64-i64:64-i128:128-f80:128-n8:16:32:64-S128"
target triple = "x86_64-pc-linux-gnu"

@.str.17 = private unnamed_addr constant [8 x i8] c"file://\00", align 1
@stderr = external global ptr, align 8
@.str.39 = private unnamed_addr constant [35 x i8] c"path lookup '%s' fails with: '%s'\0A\00", align 1

; Function Attrs: inlinehint nounwind uwtable
define internal ptr @g_realpath(ptr noundef %0) #12 {
  %2 = alloca ptr, align 8
  %3 = alloca [4096 x i8], align 16
  %4 = alloca ptr, align 8
  store ptr %0, ptr %2, align 8, !tbaa !6
  call void @llvm.lifetime.start.p0(i64 4096, ptr %3) #18
  call void @llvm.memset.p0.i64(ptr align 16 %3, i8 0, i64 4096, i1 false)
  call void @llvm.lifetime.start.p0(i64 8, ptr %4) #18
  %5 = load ptr, ptr %2, align 8, !tbaa !6
  %6 = getelementptr inbounds [4096 x i8], ptr %3, i64 0, i64 0
  %7 = call ptr @realpath(ptr noundef %5, ptr noundef %6) #18
  store ptr %7, ptr %4, align 8, !tbaa !6
  %8 = load ptr, ptr %4, align 8, !tbaa !6
  %9 = icmp ne ptr %8, null
  br i1 %9, label %10, label %13

10:                                               ; preds = %1
  %11 = getelementptr inbounds [4096 x i8], ptr %3, i64 0, i64 0
  %12 = call noalias ptr @g_strdup(ptr noundef %11)
  call void @llvm.lifetime.end.p0(i64 8, ptr %4) #18
  call void @llvm.lifetime.end.p0(i64 4096, ptr %3) #18
  ret ptr %12

13:                                               ; preds = %1
  %14 = load ptr, ptr @stderr, align 8, !tbaa !103
  %15 = load ptr, ptr %2, align 8, !tbaa !6
  %16 = call ptr @__errno_location() #22
  %17 = load i32, ptr %16, align 4, !tbaa !15
  %18 = call ptr @strerror(i32 noundef %17) #18
  %19 = call i32 (ptr, ptr, ...) @fprintf(ptr noundef %14, ptr noundef @.str.39, ptr noundef %15, ptr noundef %18) #18
  call void @exit(i32 noundef 1) #23
  unreachable
}

; Function Attrs: nounwind uwtable
define ptr @dt_util_normalize_path(ptr noundef %0) #0 {
  %2 = alloca ptr, align 8
  %3 = alloca ptr, align 8
  %4 = alloca ptr, align 8
  %5 = alloca ptr, align 8
  %6 = alloca ptr, align 8
  %7 = alloca ptr, align 8
  %8 = alloca i32, align 4
  store ptr %0, ptr %3, align 8, !tbaa !6
  call void @llvm.lifetime.start.p0(i64 8, ptr %4) #18
  %9 = load ptr, ptr %3, align 8, !tbaa !6
  store ptr %9, ptr %4, align 8, !tbaa !6
  call void @llvm.lifetime.start.p0(i64 8, ptr %5) #18
  %10 = load ptr, ptr %4, align 8, !tbaa !6
  %11 = call noalias ptr @g_filename_from_uri(ptr noundef %10, ptr noundef null, ptr noundef null)
  store ptr %11, ptr %5, align 8, !tbaa !6
  %12 = load ptr, ptr %5, align 8, !tbaa !6
  %13 = icmp ne ptr %12, null
  br i1 %13, label %27, label %14

14:                                               ; preds = %1
  %15 = load ptr, ptr %4, align 8, !tbaa !6
  %16 = call i32 @g_str_has_prefix(ptr noundef %15, ptr noundef @.str.17)
  %17 = icmp ne i32 %16, 0
  br i1 %17, label %18, label %23

18:                                               ; preds = %14
  %19 = load ptr, ptr %4, align 8, !tbaa !6
  %20 = getelementptr inbounds nuw i8, ptr %19, i64 7
  store ptr %20, ptr %4, align 8, !tbaa !6
  %21 = load ptr, ptr %4, align 8, !tbaa !6
  %22 = call ptr @g_uri_unescape_string(ptr noundef %21, ptr noundef null)
  store ptr %22, ptr %5, align 8, !tbaa !6
  br label %26

23:                                               ; preds = %14
  %24 = load ptr, ptr %4, align 8, !tbaa !6
  %25 = call noalias ptr @g_strdup(ptr noundef %24)
  store ptr %25, ptr %5, align 8, !tbaa !6
  br label %26

26:                                               ; preds = %23, %18
  br label %27

27:                                               ; preds = %26, %1
  %28 = load ptr, ptr %5, align 8, !tbaa !6
  %29 = call i32 @g_path_is_absolute(ptr noundef %28)
  %30 = icmp eq i32 %29, 0
  br i1 %30, label %31, label %51

31:                                               ; preds = %27
  call void @llvm.lifetime.start.p0(i64 8, ptr %6) #18
  %32 = call ptr @g_get_current_dir()
  store ptr %32, ptr %6, align 8, !tbaa !6
  call void @llvm.lifetime.start.p0(i64 8, ptr %7) #18
  %33 = load ptr, ptr %6, align 8, !tbaa !6
  %34 = load ptr, ptr %5, align 8, !tbaa !6
  %35 = call noalias ptr (ptr, ...) @g_build_filename(ptr noundef %33, ptr noundef %34, ptr noundef null)
  store ptr %35, ptr %7, align 8, !tbaa !6
  %36 = load ptr, ptr %5, align 8, !tbaa !6
  call void @g_free(ptr noundef %36)
  %37 = load ptr, ptr %7, align 8, !tbaa !6
  %38 = call ptr @g_realpath(ptr noundef %37)
  store ptr %38, ptr %5, align 8, !tbaa !6
  %39 = load ptr, ptr %5, align 8, !tbaa !6
  %40 = icmp eq ptr %39, null
  br i1 %40, label %41, label %45

41:                                               ; preds = %31
  %42 = load ptr, ptr %6, align 8, !tbaa !6
  call void @g_free(ptr noundef %42)
  %43 = load ptr, ptr %7, align 8, !tbaa !6
  call void @g_free(ptr noundef %43)
  %44 = load ptr, ptr %5, align 8, !tbaa !6
  call void @g_free(ptr noundef %44)
  store ptr null, ptr %2, align 8
  store i32 1, ptr %8, align 4
  br label %48

45:                                               ; preds = %31
  %46 = load ptr, ptr %6, align 8, !tbaa !6
  call void @g_free(ptr noundef %46)
  %47 = load ptr, ptr %7, align 8, !tbaa !6
  call void @g_free(ptr noundef %47)
  store i32 0, ptr %8, align 4
  br label %48

48:                                               ; preds = %45, %41
  call void @llvm.lifetime.end.p0(i64 8, ptr %7) #18
  call void @llvm.lifetime.end.p0(i64 8, ptr %6) #18
  %49 = load i32, ptr %8, align 4
  switch i32 %49, label %53 [
    i32 0, label %50
  ]

50:                                               ; preds = %48
  br label %51

51:                                               ; preds = %50, %27
  %52 = load ptr, ptr %5, align 8, !tbaa !6
  store ptr %52, ptr %2, align 8
  store i32 1, ptr %8, align 4
  br label %53

53:                                               ; preds = %51, %48
  call void @llvm.lifetime.end.p0(i64 8, ptr %5) #18
  call void @llvm.lifetime.end.p0(i64 8, ptr %4) #18
  %54 = load ptr, ptr %2, align 8
  ret ptr %54
}