; Function Attrs: nounwind uwtable
define ptr @dt_util_normalize_path(ptr noundef %0) local_unnamed_addr #0 {
  %2 = alloca [4096 x i8], align 16
  %3 = tail call noalias ptr @g_filename_from_uri(ptr noundef %0, ptr noundef null, ptr noundef null) #27
  %.not = icmp eq ptr %3, null
  br i1 %.not, label %4, label %11

4:                                                ; preds = %1
  %5 = tail call i32 @g_str_has_prefix(ptr noundef %0, ptr noundef nonnull @.str.17) #27
  %.not25 = icmp eq i32 %5, 0
  br i1 %.not25, label %9, label %6

6:                                                ; preds = %4
  %7 = getelementptr inbounds nuw i8, ptr %0, i64 7
  %8 = tail call ptr @g_uri_unescape_string(ptr noundef nonnull %7, ptr noundef null) #27
  br label %11

9:                                                ; preds = %4
  %10 = tail call noalias ptr @g_strdup(ptr noundef %0) #27
  br label %11

11:                                               ; preds = %6, %9, %1
  %.021 = phi ptr [ %3, %1 ], [ %8, %6 ], [ %10, %9 ]
  %12 = tail call i32 @g_path_is_absolute(ptr noundef %.021) #27
  %13 = icmp eq i32 %12, 0
  br i1 %13, label %14, label %26

14:                                               ; preds = %11
  %15 = tail call ptr @g_get_current_dir() #27
  %16 = tail call noalias ptr (ptr, ...) @g_build_filename(ptr noundef %15, ptr noundef %.021, ptr noundef null) #27
  tail call void @g_free(ptr noundef %.021) #27
  call void @llvm.lifetime.start.p0(i64 4096, ptr nonnull %2) #27
  call void @llvm.memset.p0.i64(ptr noundef nonnull align 16 dereferenceable(4096) %2, i8 0, i64 4096, i1 false)
  %17 = call ptr @realpath(ptr noundef %16, ptr noundef nonnull %2) #27
  %.not.i = icmp eq ptr %17, null
  br i1 %.not.i, label %18, label %g_realpath.exit

18:                                               ; preds = %14
  %19 = load ptr, ptr @stderr, align 8, !tbaa !87
  %20 = tail call ptr @__errno_location() #30
  %21 = load i32, ptr %20, align 4, !tbaa !25
  %22 = call ptr @strerror(i32 noundef %21) #27
  %23 = call i32 (ptr, ptr, ...) @fprintf(ptr noundef %19, ptr noundef nonnull @.str.39, ptr noundef %16, ptr noundef %22) #31
  call void @exit(i32 noundef 1) #32
  unreachable

g_realpath.exit:                                  ; preds = %14
  %24 = call noalias ptr @g_strdup(ptr noundef nonnull %2) #27
  call void @llvm.lifetime.end.p0(i64 4096, ptr nonnull %2) #27
  %.not26 = icmp eq ptr %24, null
  call void @g_free(ptr noundef %15) #27
  call void @g_free(ptr noundef %16) #27
  br i1 %.not26, label %25, label %26

25:                                               ; preds = %g_realpath.exit
  call void @g_free(ptr noundef null) #27
  br label %26

26:                                               ; preds = %g_realpath.exit, %25, %11
  %.1 = phi ptr [ %.021, %11 ], [ null, %25 ], [ %24, %g_realpath.exit ]
  ret ptr %.1
}